target datalayout = "e-m:e-p270:32:32-p271:32:32-p272:64:64-i64:64-i128:128-f80:128-n8:16:32:64-S128"
target triple = "x86_64-unknown-linux-gnu"

%"class.std::__cxx11::basic_string" = type { %"struct.std::__cxx11::basic_string<char>::_Alloc_hider", i64, %union.anon }
%"struct.std::__cxx11::basic_string<char>::_Alloc_hider" = type { ptr }
%union.anon = type { i64, [8 x i8] }
%"class.std::allocator" = type { i8 }

@__dso_handle = external hidden global i8
@_ZZNK19OpenColorIO_v2_4dev17XmlReaderDummyElt11DummyParent13getIdentifierB5cxx11EvE10identifierB5cxx11 = internal global %"class.std::__cxx11::basic_string" zeroinitializer, align 8
@_ZGVZNK19OpenColorIO_v2_4dev17XmlReaderDummyElt11DummyParent13getIdentifierB5cxx11EvE10identifierB5cxx11 = internal global i64 0, align 8
@.str.9 = private unnamed_addr constant [8 x i8] c"Unknown\00", align 1

; Function Attrs: mustprogress uwtable
define hidden noundef nonnull align 8 dereferenceable(32) ptr @_ZNK19OpenColorIO_v2_4dev17XmlReaderDummyElt11DummyParent13getIdentifierB5cxx11Ev(ptr noundef nonnull align 8 dereferenceable(80) %this) unnamed_addr #5 align 2 personality ptr @__gxx_personality_v0 {
entry:
  %this.addr = alloca ptr, align 8
  %ref.tmp = alloca %"class.std::allocator", align 1
  %exn.slot = alloca ptr, align 8
  %ehselector.slot = alloca i32, align 4
  store ptr %this, ptr %this.addr, align 8
  %0 = load atomic i8, ptr @_ZGVZNK19OpenColorIO_v2_4dev17XmlReaderDummyElt11DummyParent13getIdentifierB5cxx11EvE10identifierB5cxx11 acquire, align 8
  %guard.uninitialized = icmp eq i8 %0, 0
  br i1 %guard.uninitialized, label %init.check, label %init.end, !prof !4

init.check:                                       ; preds = %entry
  %1 = call i32 @__cxa_guard_acquire(ptr @_ZGVZNK19OpenColorIO_v2_4dev17XmlReaderDummyElt11DummyParent13getIdentifierB5cxx11EvE10identifierB5cxx11) #3
  %tobool = icmp ne i32 %1, 0
  br i1 %tobool, label %init, label %init.end

init:                                             ; preds = %init.check
  call void @_ZNSaIcEC1Ev(ptr noundef nonnull align 1 dereferenceable(1) %ref.tmp) #3
  invoke void @_ZNSt7__cxx1112basic_stringIcSt11char_traitsIcESaIcEEC1EPKcRKS3_(ptr noundef nonnull align 8 dereferenceable(32) @_ZZNK19OpenColorIO_v2_4dev17XmlReaderDummyElt11DummyParent13getIdentifierB5cxx11EvE10identifierB5cxx11, ptr noundef @.str.9, ptr noundef nonnull align 1 dereferenceable(1) %ref.tmp)
          to label %invoke.cont unwind label %lpad

invoke.cont:                                      ; preds = %init
  call void @_ZNSaIcED1Ev(ptr noundef nonnull align 1 dereferenceable(1) %ref.tmp) #3
  %2 = call i32 @__cxa_atexit(ptr @_ZNSt7__cxx1112basic_stringIcSt11char_traitsIcESaIcEED1Ev, ptr @_ZZNK19OpenColorIO_v2_4dev17XmlReaderDummyElt11DummyParent13getIdentifierB5cxx11EvE10identifierB5cxx11, ptr @__dso_handle) #3
  call void @__cxa_guard_release(ptr @_ZGVZNK19OpenColorIO_v2_4dev17XmlReaderDummyElt11DummyParent13getIdentifierB5cxx11EvE10identifierB5cxx11) #3
  br label %init.end

init.end:                                         ; preds = %invoke.cont, %init.check, %entry
  ret ptr @_ZZNK19OpenColorIO_v2_4dev17XmlReaderDummyElt11DummyParent13getIdentifierB5cxx11EvE10identifierB5cxx11

lpad:                                             ; preds = %init
  %3 = landingpad { ptr, i32 }
          cleanup
  %4 = extractvalue { ptr, i32 } %3, 0
  store ptr %4, ptr %exn.slot, align 8
  %5 = extractvalue { ptr, i32 } %3, 1
  store i32 %5, ptr %ehselector.slot, align 4
  call void @_ZNSaIcED1Ev(ptr noundef nonnull align 1 dereferenceable(1) %ref.tmp) #3
  call void @__cxa_guard_abort(ptr @_ZGVZNK19OpenColorIO_v2_4dev17XmlReaderDummyElt11DummyParent13getIdentifierB5cxx11EvE10identifierB5cxx11) #3
  br label %eh.resume

eh.resume:                                        ; preds = %lpad
  %exn = load ptr, ptr %exn.slot, align 8
  %sel = load i32, ptr %ehselector.slot, align 4
  %lpad.val = insertvalue { ptr, i32 } poison, ptr %exn, 0
  %lpad.val2 = insertvalue { ptr, i32 } %lpad.val, i32 %sel, 1
  resume { ptr, i32 } %lpad.val2
}