; Function Attrs: mustprogress uwtable
define hidden noundef nonnull align 8 dereferenceable(32) ptr @_ZNK19OpenColorIO_v2_4dev17XmlReaderDummyElt11DummyParent13getIdentifierB5cxx11Ev(ptr nocapture nonnull readnone align 8 %this) unnamed_addr #4 align 2 personality ptr @__gxx_personality_v0 {
entry:
  %ref.tmp = alloca %"class.std::allocator", align 1
  %0 = load atomic i8, ptr @_ZGVZNK19OpenColorIO_v2_4dev17XmlReaderDummyElt11DummyParent13getIdentifierB5cxx11EvE10identifierB5cxx11 acquire, align 8
  %guard.uninitialized = icmp eq i8 %0, 0
  br i1 %guard.uninitialized, label %init.check, label %init.end, !prof !4

init.check:                                       ; preds = %entry
  %1 = tail call i32 @__cxa_guard_acquire(ptr nonnull @_ZGVZNK19OpenColorIO_v2_4dev17XmlReaderDummyElt11DummyParent13getIdentifierB5cxx11EvE10identifierB5cxx11) #25
  %tobool.not = icmp eq i32 %1, 0
  br i1 %tobool.not, label %init.end, label %init

init:                                             ; preds = %init.check
  call void @_ZNSaIcEC1Ev(ptr noundef nonnull align 1 dereferenceable(1) %ref.tmp) #25
  invoke void @_ZNSt7__cxx1112basic_stringIcSt11char_traitsIcESaIcEEC1EPKcRKS3_(ptr noundef nonnull align 8 dereferenceable(32) @_ZZNK19OpenColorIO_v2_4dev17XmlReaderDummyElt11DummyParent13getIdentifierB5cxx11EvE10identifierB5cxx11, ptr noundef nonnull @.str.9, ptr noundef nonnull align 1 dereferenceable(1) %ref.tmp)
          to label %invoke.cont unwind label %lpad

invoke.cont:                                      ; preds = %init
  call void @_ZNSaIcED1Ev(ptr noundef nonnull align 1 dereferenceable(1) %ref.tmp) #25
  %2 = call i32 @__cxa_atexit(ptr nonnull @_ZNSt7__cxx1112basic_stringIcSt11char_traitsIcESaIcEED1Ev, ptr nonnull @_ZZNK19OpenColorIO_v2_4dev17XmlReaderDummyElt11DummyParent13getIdentifierB5cxx11EvE10identifierB5cxx11, ptr nonnull @__dso_handle) #25
  call void @__cxa_guard_release(ptr nonnull @_ZGVZNK19OpenColorIO_v2_4dev17XmlReaderDummyElt11DummyParent13getIdentifierB5cxx11EvE10identifierB5cxx11) #25
  br label %init.end

init.end:                                         ; preds = %invoke.cont, %init.check, %entry
  ret ptr @_ZZNK19OpenColorIO_v2_4dev17XmlReaderDummyElt11DummyParent13getIdentifierB5cxx11EvE10identifierB5cxx11

lpad:                                             ; preds = %init
  %3 = landingpad { ptr, i32 }
          cleanup
  call void @_ZNSaIcED1Ev(ptr noundef nonnull align 1 dereferenceable(1) %ref.tmp) #25
  call void @__cxa_guard_abort(ptr nonnull @_ZGVZNK19OpenColorIO_v2_4dev17XmlReaderDummyElt11DummyParent13getIdentifierB5cxx11EvE10identifierB5cxx11) #25
  resume { ptr, i32 } %3
}